target datalayout = "e-m:e-p270:32:32-p271:32:32-p272:64:64-i64:64-i128:128-f80:128-n8:16:32:64-S128"
target triple = "x86_64-pc-linux-gnu"

%struct.slurm_conf_t = type { i64, ptr, i16, ptr, ptr, ptr, ptr, ptr, i16, ptr, ptr, ptr, ptr, ptr, ptr, ptr, i16, ptr, ptr, ptr, ptr, i16, ptr, ptr, ptr, i64, ptr, ptr, ptr, ptr, i16, ptr, ptr, i16, i32, ptr, i32, ptr, i32, i32, ptr, ptr, i64, i64, ptr, i16, i16, ptr, i32, i32, ptr, i32, ptr, i32, i16, i16, i16, ptr, i16, i16, ptr, ptr, i32, i16, i16, ptr, i32, i16, ptr, ptr, ptr, ptr, i16, ptr, ptr, ptr, ptr, i32, ptr, ptr, ptr, ptr, i16, i16, ptr, i32, i32, i32, i16, i16, ptr, ptr, i16, ptr, ptr, i32, i32, i32, i32, i32, i64, i32, i32, i16, ptr, ptr, i32, ptr, ptr, ptr, i16, i32, ptr, ptr, i16, ptr, ptr, i32, i16, ptr, ptr, ptr, ptr, i32, i32, i16, i16, i32, ptr, i16, ptr, i32, i32, i32, i32, i32, i32, ptr, i16, ptr, ptr, i32, i16, ptr, i32, i16, i16, ptr, ptr, ptr, i16, ptr, ptr, ptr, ptr, i16, i16, ptr, i16, ptr, i16, ptr, i16, ptr, i16, ptr, ptr, ptr, ptr, i16, ptr, ptr, ptr, i32, ptr, i32, ptr, ptr, i16, ptr, ptr, i32, i16, ptr, ptr, i16, i16, ptr, i16, ptr, ptr, ptr, i32, ptr, i16, i16, ptr, ptr, ptr, ptr, ptr, ptr, ptr, ptr, i16, i32, i16, ptr, ptr, ptr, ptr, i32, ptr, ptr, ptr, i16, ptr, ptr, ptr, i16, ptr, i16, ptr, i16, i16, ptr }
%struct.slurmdbd_conf_t = type { ptr, ptr, i16, ptr, ptr, ptr, i16, i16, ptr, i32, ptr, i32, ptr, i16, ptr, i32, i32, i32, i32, i32, i32, i32, ptr, i16, i16, i16 }

@slurmdbd_conf = dso_local global ptr null, align 8

; Function Attrs: nounwind uwtable
define dso_local zeroext i16 @slurm_get_track_wckey() #0 {
  %1 = alloca i16, align 2
  %2 = alloca ptr, align 8
  call void @llvm.lifetime.start.p0(i64 2, ptr %1) #12
  store i16 0, ptr %1, align 2
  call void @llvm.lifetime.start.p0(i64 8, ptr %2) #12
  %3 = load ptr, ptr @slurmdbd_conf, align 8
  %4 = icmp ne ptr %3, null
  br i1 %4, label %5, label %9

5:                                                ; preds = %0
  %6 = load ptr, ptr @slurmdbd_conf, align 8
  %7 = getelementptr inbounds nuw %struct.slurmdbd_conf_t, ptr %6, i32 0, i32 24
  %8 = load i16, ptr %7, align 2
  store i16 %8, ptr %1, align 2
  br label %19

9:                                                ; preds = %0
  %10 = call ptr @slurm_conf_lock()
  store ptr %10, ptr %2, align 8
  %11 = load ptr, ptr %2, align 8
  %12 = getelementptr inbounds nuw %struct.slurm_conf_t, ptr %11, i32 0, i32 34
  %13 = load i32, ptr %12, align 4
  %14 = zext i32 %13 to i64
  %15 = and i64 %14, 32
  %16 = icmp ne i64 %15, 0
  %17 = select i1 %16, i32 1, i32 0
  %18 = trunc i32 %17 to i16
  store i16 %18, ptr %1, align 2
  call void @slurm_conf_unlock()
  br label %19

19:                                               ; preds = %9, %5
  %20 = load i16, ptr %1, align 2
  call void @llvm.lifetime.end.p0(i64 8, ptr %2) #12
  call void @llvm.lifetime.end.p0(i64 2, ptr %1) #12
  ret i16 %20
}