; Function Attrs: nounwind uwtable
define dso_local zeroext i16 @slurm_get_track_wckey() local_unnamed_addr #1 {
  %1 = load ptr, ptr @slurmdbd_conf, align 8
  %.not = icmp eq ptr %1, null
  br i1 %.not, label %5, label %2

2:                                                ; preds = %0
  %3 = getelementptr inbounds nuw i8, ptr %1, i64 154
  %4 = load i16, ptr %3, align 2
  br label %12

5:                                                ; preds = %0
  %6 = tail call ptr @slurm_conf_lock() #19
  %7 = getelementptr inbounds nuw i8, ptr %6, i64 268
  %8 = load i32, ptr %7, align 4
  %9 = trunc i32 %8 to i16
  %10 = lshr i16 %9, 5
  %11 = and i16 %10, 1
  tail call void @slurm_conf_unlock() #19
  br label %12

12:                                               ; preds = %5, %2
  %.0 = phi i16 [ %4, %2 ], [ %11, %5 ]
  ret i16 %.0
}